; Function Attrs: nounwind uwtable
define hidden zeroext i1 @Wayland_GLES_SetSwapInterval(ptr noundef readonly captures(none) %0, i32 noundef %1) local_unnamed_addr #0 {
  %3 = getelementptr inbounds nuw i8, ptr %0, i64 1672
  %4 = load ptr, ptr %3, align 8
  %.not = icmp eq ptr %4, null
  br i1 %.not, label %5, label %7

5:                                                ; preds = %2
  %6 = tail call zeroext i1 (ptr, ...) @SDL_SetError_REAL(ptr noundef nonnull @.str) #4
  br label %15

7:                                                ; preds = %2
  %spec.store.select = tail call i32 @llvm.smax.i32(i32 %1, i32 -1)
  %.0 = tail call i32 @llvm.smin.i32(i32 %spec.store.select, i32 1)
  %8 = getelementptr inbounds nuw i8, ptr %4, i64 32
  store i32 %.0, ptr %8, align 8
  %9 = load ptr, ptr %3, align 8
  %10 = getelementptr inbounds nuw i8, ptr %9, i64 160
  %11 = load ptr, ptr %10, align 8
  %12 = getelementptr inbounds nuw i8, ptr %9, i64 16
  %13 = load ptr, ptr %12, align 8
  %14 = tail call i32 %11(ptr noundef %13, i32 noundef 0) #4
  br label %15

15:                                               ; preds = %7, %5
  %.07 = phi i1 [ true, %7 ], [ %6, %5 ]
  ret i1 %.07
}